target datalayout = "e-m:e-p270:32:32-p271:32:32-p272:64:64-i64:64-i128:128-f80:128-n8:16:32:64-S128"
target triple = "x86_64-pc-linux-gnu"

%"class.datalog::relation_manager" = type { ptr, ptr, %class.ptr_vector, %class.ptr_vector.0, %class.map, %class.map.2, %class.u_map, ptr, ptr, %class.obj_map, %class.obj_hashtable, i32, i32, %class.obj_map.17 }
%class.ptr_vector = type { %class.vector }
%class.vector = type { ptr }
%class.ptr_vector.0 = type { %class.vector.1 }
%class.vector.1 = type { ptr }
%class.map = type { %class.table2map }
%class.table2map = type { %class.core_hashtable }
%class.core_hashtable = type <{ ptr, i32, i32, i32, [4 x i8] }>
%class.map.2 = type { %class.table2map.3 }
%class.table2map.3 = type { %class.core_hashtable.4 }
%class.core_hashtable.4 = type <{ ptr, i32, i32, i32, [4 x i8] }>
%class.u_map = type { %class.map.8 }
%class.map.8 = type { %class.table2map.9 }
%class.table2map.9 = type { %class.core_hashtable.10 }
%class.core_hashtable.10 = type <{ ptr, i32, i32, i32, [4 x i8] }>
%class.obj_map = type { %class.core_hashtable.12 }
%class.core_hashtable.12 = type <{ ptr, i32, i32, i32, [4 x i8] }>
%class.obj_hashtable = type { %class.core_hashtable.base.16, [4 x i8] }
%class.core_hashtable.base.16 = type <{ ptr, i32, i32, i32 }>
%class.obj_map.17 = type { %class.core_hashtable.18 }
%class.core_hashtable.18 = type <{ ptr, i32, i32, i32, [4 x i8] }>
%struct._key_data = type { i32, ptr }

; Function Attrs: mustprogress uwtable
define linkonce_odr hidden void @_ZN9table2mapI17default_map_entryIjPN7datalog15relation_pluginEE6u_hash4u_eqE6insertERKjOS3_(ptr noundef nonnull align 8 dereferenceable(24) %0, ptr noundef nonnull align 4 dereferenceable(4) %1, ptr noundef nonnull align 8 dereferenceable(8) %2) #5 comdat align 2 {
  %4 = alloca ptr, align 8
  %5 = alloca ptr, align 8
  %6 = alloca ptr, align 8
  %7 = alloca %struct._key_data, align 8
  store ptr %0, ptr %4, align 8, !tbaa !54
  store ptr %1, ptr %5, align 8, !tbaa !286
  store ptr %2, ptr %6, align 8, !tbaa !282
  %8 = load ptr, ptr %4, align 8
  %9 = getelementptr inbounds nuw %class.table2map.9, ptr %8, i32 0, i32 0
  call void @llvm.lifetime.start.p0(i64 16, ptr %7) #3
  %10 = getelementptr inbounds nuw %struct._key_data, ptr %7, i32 0, i32 0
  %11 = load ptr, ptr %5, align 8, !tbaa !286
  %12 = load i32, ptr %11, align 4, !tbaa !279
  store i32 %12, ptr %10, align 8, !tbaa !287
  %13 = getelementptr inbounds nuw %struct._key_data, ptr %7, i32 0, i32 1
  %14 = load ptr, ptr %6, align 8, !tbaa !282
  %15 = load ptr, ptr %14, align 8, !tbaa !283
  store ptr %15, ptr %13, align 8, !tbaa !289
  call void @_ZN14core_hashtableI17default_map_entryIjPN7datalog15relation_pluginEEN9table2mapIS4_6u_hash4u_eqE15entry_hash_procENS8_13entry_eq_procEE6insertEO9_key_dataIjS3_E(ptr noundef nonnull align 8 dereferenceable(20) %9, ptr noundef nonnull align 8 dereferenceable(16) %7)
  call void @llvm.lifetime.end.p0(i64 16, ptr %7) #3
  ret void
}

; Function Attrs: mustprogress uwtable
define hidden noundef i32 @_ZN7datalog16relation_manager21get_next_relation_fidERNS_15relation_pluginE(ptr noundef nonnull align 8 dereferenceable(200) %0, ptr noundef nonnull align 8 dereferenceable(36) %1) #5 align 2 {
  %3 = alloca ptr, align 8
  %4 = alloca ptr, align 8
  %5 = alloca i32, align 4
  %6 = alloca ptr, align 8
  store ptr %0, ptr %3, align 8, !tbaa !3
  store ptr %1, ptr %4, align 8, !tbaa !283
  %7 = load ptr, ptr %3, align 8
  call void @llvm.lifetime.start.p0(i64 4, ptr %5) #3
  %8 = getelementptr inbounds nuw %"class.datalog::relation_manager", ptr %7, i32 0, i32 12
  %9 = load i32, ptr %8, align 4, !tbaa !47
  %10 = add nsw i32 %9, 1
  store i32 %10, ptr %8, align 4, !tbaa !47
  store i32 %9, ptr %5, align 4, !tbaa !279
  %11 = getelementptr inbounds nuw %"class.datalog::relation_manager", ptr %7, i32 0, i32 6
  call void @llvm.lifetime.start.p0(i64 8, ptr %6) #3
  %12 = load ptr, ptr %4, align 8, !tbaa !283
  store ptr %12, ptr %6, align 8, !tbaa !283
  call void @_ZN9table2mapI17default_map_entryIjPN7datalog15relation_pluginEE6u_hash4u_eqE6insertERKjOS3_(ptr noundef nonnull align 8 dereferenceable(24) %11, ptr noundef nonnull align 4 dereferenceable(4) %5, ptr noundef nonnull align 8 dereferenceable(8) %6)
  call void @llvm.lifetime.end.p0(i64 8, ptr %6) #3
  %13 = load i32, ptr %5, align 4, !tbaa !279
  call void @llvm.lifetime.end.p0(i64 4, ptr %5) #3
  ret i32 %13
}