; Function Attrs: mustprogress uwtable
define hidden noundef i32 @_ZN7datalog16relation_manager21get_next_relation_fidERNS_15relation_pluginE(ptr noundef nonnull align 8 dereferenceable(200) %0, ptr noundef nonnull align 8 dereferenceable(36) %1) local_unnamed_addr #4 align 2 {
  %3 = alloca %struct._key_data, align 8
  %4 = getelementptr inbounds nuw i8, ptr %0, i64 172
  %5 = load i32, ptr %4, align 4, !tbaa !57
  %6 = add nsw i32 %5, 1
  store i32 %6, ptr %4, align 4, !tbaa !57
  %7 = getelementptr inbounds nuw i8, ptr %0, i64 80
  call void @llvm.lifetime.start.p0(i64 16, ptr nonnull %3) #27
  store i32 %5, ptr %3, align 8, !tbaa !264
  %8 = getelementptr inbounds nuw i8, ptr %3, i64 8
  store ptr %1, ptr %8, align 8, !tbaa !266
  call void @_ZN14core_hashtableI17default_map_entryIjPN7datalog15relation_pluginEEN9table2mapIS4_6u_hash4u_eqE15entry_hash_procENS8_13entry_eq_procEE6insertEO9_key_dataIjS3_E(ptr noundef nonnull align 8 dereferenceable(24) %7, ptr noundef nonnull align 8 dereferenceable(16) %3)
  call void @llvm.lifetime.end.p0(i64 16, ptr nonnull %3) #27
  ret i32 %5
}